(dp0
S'Natalya Verso'
p1
(dp2
S'phone1'
p3
S'519-736-9305'
p4
sS'address'
p5
S'74, Chestnut, St'
p6
ssS'Lazaro Mollison'
p7
(dp8
g3
S'450-356-6427'
p9
sg5
S'31, E, Middlefield, Rd, #8555'
p10
ssS'Hannah Edmison'
p11
(dp12
g3
S'604-334-3686'
p13
sg5
S'73, Pittsford, Victor, Rd'
p14
ssS'Leila Titzer'
p15
(dp16
g3
S'403-733-8035'
p17
sg5
S'9, Constitution, Ave'
p18
ssS'Wilson Nickelson'
p19
(dp20
g3
S'416-376-7867'
p21
sg5
S'74, Se, 3rd, Ave, #1494'
p22
ssS'Sanda Laramie'
p23
(dp24
g3
S'250-700-8923'
p25
sg5
S'5181, N, Alma, School, Rd'
p26
ssS'Enola Yandow'
p27
(dp28
g3
S'902-539-1621'
p29
sg5
S'7, Sw, 5th, Ave'
p30
ssS'Toi Rollison'
p31
(dp32
g3
S'450-714-2875'
p33
sg5
S'2, S, Church, St'
p34
ssS'Mozelle Hermon'
p35
(dp36
g3
S'506-573-3112'
p37
sg5
S'523, Spencerville, Ct'
p38
ssS'Paris Bellis'
p39
(dp40
g3
S'519-909-5933'
p41
sg5
S'89, Parade, St'
p42
ssS'Ronnie Kettelle'
p43
(dp44
g3
S'902-367-7042'
p45
sg5
S'3, Avenue, Rt, 295, #199'
p46
ssS'Miriam Stakes'
p47
(dp48
g3
S'905-441-5009'
p49
sg5
S'784, Packerland, Dr'
p50
ssS'Freeman Rudig'
p51
(dp52
g3
S'450-347-6388'
p53
sg5
S'4, W, Sedgley, Ave'
p54
ssS'Pearline Provenzano'
p55
(dp56
g3
S'905-734-9102'
p57
sg5
S'611, S, 2nd, St'
p58
ssS'Nieves Planty'
p59
(dp60
g3
S'705-616-5386'
p61
sg5
S'684, Albion, Rd'
p62
ssS'Buck Kotow'
p63
(dp64
g3
S'807-668-2676'
p65
sg5
S'863, Mcgilchrist, St, Se'
p66
ssS'Noe Kotz'
p67
(dp68
g3
S'250-901-1245'
p69
sg5
S'3878, Little, John, Way'
p70
ssS'Bulah Berkoff'
p71
(dp72
g3
S'519-309-5863'
p73
sg5
S'2497, Pennsylvania, Ave'
p74
ssS'Robt Hankison'
p75
(dp76
g3
S'418-874-8104'
p77
sg5
S'3780, Ronson, Rd'
p78
ssS'Tesha Brang'
p79
(dp80
g3
S'514-432-5290'
p81
sg5
S'831, Vanowen, St, #5'
p82
ssS'Valentin Billa'
p83
(dp84
g3
S'306-291-5073'
p85
sg5
S'6185, Bohn, St, #72'
p86
ssS'Merri Geberth'
p87
(dp88
g3
S'204-894-9221'
p89
sg5
S'4, Beaverbrook, Rd'
p90
ssS'Desirae Oien'
p91
(dp92
g3
S'403-405-2804'
p93
sg5
S'200, W, Bijou, St, #6013'
p94
ssS'Kathrine Kaper'
p95
(dp96
g3
S'902-500-1564'
p97
sg5
S'100, Rombouts, Ave'
p98
ssS'Kendra Loud'
p99
(dp100
g3
S'506-363-1526'
p101
sg5
S'6, Arch, St, #9757'
p102
ssS'Jaime Wasurick'
p103
(dp104
g3
S'450-531-8633'
p105
sg5
S'6760, E, Fayette, St, #9'
p106
ssS'Twila Shadle'
p107
(dp108
g3
S'250-862-6746'
p109
sg5
S'20, Simpson, Ferry, Rd'
p110
ssS'Kristal Bothe'
p111
(dp112
g3
S'709-976-5766'
p113
sg5
S'896, Pershing, Ave'
p114
ssS'Stacey Lortz'
p115
(dp116
g3
S'416-310-1610'
p117
sg5
S'5039, Coffee, Rd'
p118
ssS'Floyd Bub'
p119
(dp120
g3
S'416-557-9767'
p121
sg5
S'4701, N, Cocoa, Blvd'
p122
ssS'Elvis Tenuta'
p123
(dp124
g3
S'403-415-1285'
p125
sg5
S'6437, Date, Palm, Dr'
p126
ssS'Loreen Griepentrog'
p127
(dp128
g3
S'613-684-4467'
p129
sg5
S'6, Monard, Dr'
p130
ssS'Jenifer Emanuel'
p131
(dp132
g3
S'250-947-2063'
p133
sg5
S'78, 152nd, Ave, #4179'
p134
ssS'Sheldon Isachsen'
p135
(dp136
g3
S'902-330-7314'
p137
sg5
S'35, Milnor, St'
p138
ssS'Willetta Cesa'
p139
(dp140
g3
S'902-981-7382'
p141
sg5
S'578, E, Us, Highway, 36, #3'
p142
ssS'Rosann Heinricher'
p143
(dp144
g3
S'450-474-6397'
p145
sg5
S'91, Nw, 52nd, Ave'
p146
ssS'Krystal Twyman'
p147
(dp148
g3
S'416-712-8230'
p149
sg5
S'9, Garcia, Ave, #38'
p150
ssS'Shawnna Arredondo'
p151
(dp152
g3
S'613-996-1062'
p153
sg5
S'4, N, Brand, Blvd'
p154
ssS'Georgiana Colbath'
p155
(dp156
g3
S'450-409-1254'
p157
sg5
S'505, E, 9mile, Rd'
p158
ssS'Vicki Maikoksoong'
p159
(dp160
g3
S'604-231-6180'
p161
sg5
S'7, Tomahawk, Dr'
p162
ssS'Brice Rowe'
p163
(dp164
g3
S'613-631-9322'
p165
sg5
S'5, New, Circle, Rd, Ne'
p166
ssS'Ricarda Kratt'
p167
(dp168
g3
S'902-614-2197'
p169
sg5
S'1, Clairemont, Mesa, Blvd'
p170
ssS'Sarina Pead'
p171
(dp172
g3
S'905-696-6221'
p173
sg5
S'7821, 16th, St, Nw'
p174
ssS'Leontine Stalma'
p175
(dp176
g3
S'519-641-7145'
p177
sg5
S'859, Franquette, Ave'
p178
ssS'Jerilyn Norcia'
p179
(dp180
g3
S'519-978-7661'
p181
sg5
S'9, Main, St'
p182
ssS'Mable Goerke'
p183
(dp184
g3
S'416-867-5879'
p185
sg5
S'7, Woodbridge, Ave'
p186
ssS'Wenona Braseth'
p187
(dp188
g3
S'450-751-1928'
p189
sg5
S'7, Ramon, Rd'
p190
ssS'Colton Pesqueira'
p191
(dp192
g3
S'905-796-8265'
p193
sg5
S'305, Industrial, Blvd'
p194
ssS'Sonia Blan'
p195
(dp196
g3
S'709-512-6346'
p197
sg5
S'924, W, Saint, Mary, Blvd'
p198
ssS'Shad Reider'
p199
(dp200
g3
S'780-953-3852'
p201
sg5
S'7995, Douglas, Rd, E, #6'
p202
ssS'Carla Kallenberger'
p203
(dp204
g3
S'519-646-7797'
p205
sg5
S'8, Commercial, Blvd, #9'
p206
ssS'Tuyet Abramovitz'
p207
(dp208
g3
S'905-790-7938'
p209
sg5
S'976, Cozycroft, Ave'
p210
ssS'Tom Loeza'
p211
(dp212
g3
S'514-487-6096'
p213
sg5
S'447, Commercial, St, Se'
p214
ssS'Darci Arau'
p215
(dp216
g3
S'819-294-4679'
p217
sg5
S'2, Hill, Rd'
p218
ssS'Julianna Racer'
p219
(dp220
g3
S'506-752-6097'
p221
sg5
S'4407, Chestnut, Ridge, Dr'
p222
ssS'Daniel Dobler'
p223
(dp224
g3
S'506-617-2607'
p225
sg5
S'259, W, 17th, St, #39'
p226
ssS'Tawanna Kuamoo'
p227
(dp228
g3
S'418-734-9693'
p229
sg5
S'380, Main, St'
p230
ssS'Olga Adessa'
p231
(dp232
g3
S'905-775-6413'
p233
sg5
S'8507, Upland, St'
p234
ssS'Jame Mastro'
p235
(dp236
g3
S'519-920-7003'
p237
sg5
S'4465, James, St'
p238
ssS'Lourdes Bauswell'
p239
(dp240
g3
S'613-903-7043'
p241
sg5
S'9547, Belmont, Rd, #21'
p242
ssS'Ellen Fajen'
p243
(dp244
g3
S'780-720-7927'
p245
sg5
S'32, Marguerite, Pky'
p246
ssS'Edmond Buettner'
p247
(dp248
g3
S'450-829-7834'
p249
sg5
S'67, N, Washington, Ave, #960'
p250
ssS'Bernadine Shufelt'
p251
(dp252
g3
S'705-693-2982'
p253
sg5
S'3, Main, St'
p254
ssS'Tandra Castillanos'
p255
(dp256
g3
S'905-715-9339'
p257
sg5
S'629, 105th, Ave'
p258
ssS'Marion Letran'
p259
(dp260
g3
S'819-966-7240'
p261
sg5
S'5670, Leonis, Blvd'
p262
ssS'Otis Luong'
p263
(dp264
g3
S'519-739-4515'
p265
sg5
S'263, L, St, #1255'
p266
ssS'King Suman'
p267
(dp268
g3
S'418-470-4541'
p269
sg5
S'79, Lexington, Ave, #83'
p270
ssS'Francoise Rautenstrauch'
p271
(dp272
g3
S'519-569-8399'
p273
sg5
S'2335, Canton, Hwy, #6'
p274
ssS'Margo Rand'
p275
(dp276
g3
S'905-781-3868'
p277
sg5
S'344, Lyndon, St'
p278
ssS'Laurena Begin'
p279
(dp280
g3
S'519-790-8660'
p281
sg5
S'7564, N, Academy, Ave'
p282
ssS'Kenia Sharples'
p283
(dp284
g3
S'403-341-7208'
p285
sg5
S'611, Grand, Ave'
p286
ssS'Bette Digiovanni'
p287
(dp288
g3
S'519-882-6434'
p289
sg5
S'345, Broadway, St'
p290
ssS'Thora Daneker'
p291
(dp292
g3
S'819-648-4049'
p293
sg5
S'6, Old, York, Rd'
p294
ssS'Hollis Keomuangtai'
p295
(dp296
g3
S'905-928-5294'
p297
sg5
S'27, 7th, St'
p298
ssS'Glenn Robinault'
p299
(dp300
g3
S'514-330-5479'
p301
sg5
S'8700, S, Jefferson, Rd, #676'
p302
ssS'Kaycee Alaibilla'
p303
(dp304
g3
S'604-992-6045'
p305
sg5
S'8788, E, 64th, Ave'
p306
ssS'Lucille Hubbell'
p307
(dp308
g3
S'250-904-7361'
p309
sg5
S'8, General, Dr'
p310
ssS'Ivette Dills'
p311
(dp312
g3
S'902-244-5318'
p313
sg5
S'7585, Calle, De, Industrias'
p314
ssS'Paulina Arand'
p315
(dp316
g3
S'204-636-8766'
p317
sg5
S'5652, Wisconsin, Ave'
p318
ssS'Rashad Menino'
p319
(dp320
g3
S'613-697-2555'
p321
sg5
S'8, Commercial, Ave'
p322
ssS'Willard Lablanc'
p323
(dp324
g3
S'780-384-5410'
p325
sg5
S'1534, Sidco, Dr'
p326
ssS'Davida Zeng'
p327
(dp328
g3
S'450-375-8192'
p329
sg5
S'8881, Hopkins, St'
p330
ssS'Hui Portaro'
p331
(dp332
g3
S'506-827-7755'
p333
sg5
S'3, Mill, Rd'
p334
ssS'Franchesca Lamme'
p335
(dp336
g3
S'902-715-9684'
p337
sg5
S'3208, W, Touhy, Ave'
p338
ssS'Stanton Rigazio'
p339
(dp340
g3
S'416-801-7398'
p341
sg5
S'4, Smith, St, #5'
p342
ssS'Brandon Geigel'
p343
(dp344
g3
S'604-940-9313'
p345
sg5
S'70, W, Main, St'
p346
ssS'Belen Nelton'
p347
(dp348
g3
S'250-768-5812'
p349
sg5
S'77, Central, Pky, N'
p350
ssS'Marya Chhour'
p351
(dp352
g3
S'403-382-4146'
p353
sg5
S'661, Pitkin, Ave'
p354
ssS'Josefa Opitz'
p355
(dp356
g3
S'519-788-7645'
p357
sg5
S'136, W, Grand, Ave, #3'
p358
ssS'Harley Works'
p359
(dp360
g3
S'519-913-7772'
p361
sg5
S'27, Spring, St'
p362
ssS'Dawne Mcloud'
p363
(dp364
g3
S'905-760-9649'
p365
sg5
S'25, Keystone, Xing'
p366
ssS'Bo Sabota'
p367
(dp368
g3
S'204-210-4967'
p369
sg5
S'779, Moore, St'
p370
ssS'Argelia Hofbauer'
p371
(dp372
g3
S'604-823-2881'
p373
sg5
S'5, Columbia'
p374
ssS'Barney Dewer'
p375
(dp376
g3
S'902-287-1148'
p377
sg5
S'88, Norris, Ave, #2'
p378
ssS'Jannette Pedder'
p379
(dp380
g3
S'604-953-5335'
p381
sg5
S'73, Madison, Ave'
p382
ssS'Marcelle Staie'
p383
(dp384
g3
S'905-817-1934'
p385
sg5
S'76, N, Harlem, Ave'
p386
ssS'Shay Knieper'
p387
(dp388
g3
S'450-806-3050'
p389
sg5
S'571, Maiden, Ln, #7'
p390
ssS'Doretha Wykle'
p391
(dp392
g3
S'807-383-4855'
p393
sg5
S'5106, N, Laurel, Park, Dr'
p394
ssS'Asha Zoldak'
p395
(dp396
g3
S'418-470-9730'
p397
sg5
S'4, Gray, Ave'
p398
ssS'Steffanie Meinen'
p399
(dp400
g3
S'514-964-9106'
p401
sg5
S'801, W, Belmont, Ave'
p402
ssS'Herminia Penso'
p403
(dp404
g3
S'780-740-5294'
p405
sg5
S'880, W, South, Water, Market'
p406
ssS'Paola Perkins'
p407
(dp408
g3
S'780-573-8903'
p409
sg5
S'3951, Seaway, Dr'
p410
ssS'Bong Fears'
p411
(dp412
g3
S'514-308-1992'
p413
sg5
S'7, State, St, #1'
p414
ssS'Rutha Eisert'
p415
(dp416
g3
S'905-468-2503'
p417
sg5
S'87, W, 32nd, St'
p418
ssS'Shannan Cupit'
p419
(dp420
g3
S'416-266-5891'
p421
sg5
S'6, S, San, Marcos, Rd'
p422
ssS'Apolonia Warne'
p423
(dp424
g3
S'506-978-1488'
p425
sg5
S'3, E, 31st, St, #77'
p426
ssS'Luis Metzner'
p427
(dp428
g3
S'819-860-8913'
p429
sg5
S'8868, S, Arroyo, Pkwy, #996'
p430
ssS'Lashaun Casteneda'
p431
(dp432
g3
S'780-751-5370'
p433
sg5
S'894, Feather, River, Blvd'
p434
ssS'Gearldine Haberle'
p435
(dp436
g3
S'403-810-3712'
p437
sg5
S'62, N, 3rd, St'
p438
ssS'Andree Christmann'
p439
(dp440
g3
S'519-872-6826'
p441
sg5
S'765, Rock, Island, Rd'
p442
ssS'Callie Neikirk'
p443
(dp444
g3
S'905-465-6909'
p445
sg5
S'6601, Park, Ave, #9924'
p446
ssS'Dorsey Neitzke'
p447
(dp448
g3
S'902-936-9426'
p449
sg5
S'9768, A, Aven, #112'
p450
ssS'Susy Finstad'
p451
(dp452
g3
S'403-571-8756'
p453
sg5
S'6, N, Town, East, Blvd'
p454
ssS'Boris Latif'
p455
(dp456
g3
S'418-459-4884'
p457
sg5
S'9390, Fortin, Dr'
p458
ssS'Lorriane Naddeo'
p459
(dp460
g3
S'250-544-1482'
p461
sg5
S'7, Airway, Cir'
p462
ssS'Nydia Ancar'
p463
(dp464
g3
S'780-924-8022'
p465
sg5
S'5, Pittsford, Victor, Rd'
p466
ssS'Tish Violett'
p467
(dp468
g3
S'450-840-7605'
p469
sg5
S'1, Norris, Ave, #4095'
p470
ssS'Hannah Suero'
p471
(dp472
g3
S'905-543-3967'
p473
sg5
S'3314, Hawthorne, St'
p474
ssS'Shaun Scovil'
p475
(dp476
g3
S'905-907-6615'
p477
sg5
S'253, Hamilton, Ave, #1684'
p478
ssS'Rikki Montalgo'
p479
(dp480
g3
S'514-472-6857'
p481
sg5
S'7, Lagrange, St, #10'
p482
ssS'Dion Lamastus'
p483
(dp484
g3
S'418-212-6756'
p485
sg5
S'44, S, Highland, Dr'
p486
ssS'Jaime Lowrance'
p487
(dp488
g3
S'204-438-6204'
p489
sg5
S'1, Nw, 167th, St'
p490
ssS'Delsie Cerao'
p491
(dp492
g3
S'506-795-5209'
p493
sg5
S'2, Us, Highway, 206'
p494
ssS'Von Aprigliano'
p495
(dp496
g3
S'604-986-3233'
p497
sg5
S'63, Baronne, St'
p498
ssS'Marquetta Quinlisk'
p499
(dp500
g3
S'514-950-3156'
p501
sg5
S'2965, Lake, Lizzie, Dr'
p502
ssS'Stephanie Garlett'
p503
(dp504
g3
S'613-557-7338'
p505
sg5
S'6, L, St, #1761'
p506
ssS'Dahlia Benett'
p507
(dp508
g3
S'418-344-9993'
p509
sg5
S'3986, Home, Life'
p510
ssS'Hyun Zarazua'
p511
(dp512
g3
S'519-287-4120'
p513
sg5
S'8718, N, 13th, Ave'
p514
ssS'Joaquin Geitner'
p515
(dp516
g3
S'403-640-8755'
p517
sg5
S'6410, E, State, Hwy'
p518
ssS'Coral Brennick'
p519
(dp520
g3
S'450-480-7421'
p521
sg5
S'15, Ludlow, Ave, #156'
p522
ssS'Lacresha Quinones'
p523
(dp524
g3
S'450-213-1080'
p525
sg5
S'48, Bernardo, Cent'
p526
ssS'William Cilento'
p527
(dp528
g3
S'403-251-6126'
p529
sg5
S'1434, Ash, St'
p530
ssS'Hershel Bultron'
p531
(dp532
g3
S'519-844-4835'
p533
sg5
S'658, W, 30th, St'
p534
ssS'Nan Weekly'
p535
(dp536
g3
S'519-928-8049'
p537
sg5
S'16, Ridge, Center'
p538
ssS'Paola Vielma'
p539
(dp540
g3
S'905-456-1117'
p541
sg5
S'58, Hancock, St'
p542
ssS'Bethanie Cutsforth'
p543
(dp544
g3
S'519-328-4250'
p545
sg5
S'5, Victory, Ave'
p546
ssS'Reyes Mesmer'
p547
(dp548
g3
S'905-402-9203'
p549
sg5
S'9, E, Thayer, Ave, #3'
p550
ssS'Coral Helmcamp'
p551
(dp552
g3
S'416-589-6075'
p553
sg5
S'4184, E, 142nd, St'
p554
ssS'Chandra Firlik'
p555
(dp556
g3
S'905-451-3719'
p557
sg5
S'686, S, Dupont, Hwy'
p558
ssS'Crissy Pacholec'
p559
(dp560
g3
S'705-477-2307'
p561
sg5
S'85, S, State, St'
p562
ssS'Fletcher Caneles'
p563
(dp564
g3
S'905-992-1637'
p565
sg5
S'87, Spencerville, Ct, #2'
p566
ssS'Miss Dunning'
p567
(dp568
g3
S'306-508-8874'
p569
sg5
S'38, Douglas, Rd, E, #39'
p570
ssS'Angelyn Wieand'
p571
(dp572
g3
S'905-838-3914'
p573
sg5
S'79, Craig, Rd'
p574
ssS'Vinnie Meir'
p575
(dp576
g3
S'416-862-7028'
p577
sg5
S'559, Bridge, Plz'
p578
ssS'Dolores Moltz'
p579
(dp580
g3
S'506-216-2028'
p581
sg5
S'80, S, Beckley, St'
p582
ssS'Renay Oviedo'
p583
(dp584
g3
S'416-336-6767'
p585
sg5
S'873, E, Cumberland, St'
p586
ssS'Kassandra Marushia'
p587
(dp588
g3
S'250-646-6446'
p589
sg5
S'123, Euclid, Ave, #9396'
p590
ssS'Maxima Brzozowski'
p591
(dp592
g3
S'905-569-6732'
p593
sg5
S'864, Aupuni, St'
p594
ssS'Luann Michon'
p595
(dp596
g3
S'514-578-7262'
p597
sg5
S'5, Goddard, Rd'
p598
ssS'Oneida Pospishil'
p599
(dp600
g3
S'819-511-9240'
p601
sg5
S'5, E, King, St, #6'
p602
ssS'Anissa Frayer'
p603
(dp604
g3
S'604-925-4225'
p605
sg5
S'7635, Run, Subdivision'
p606
ssS'Alita Borlace'
p607
(dp608
g3
S'807-289-5397'
p609
sg5
S'5, S, Gage, St, #6175'
p610
ssS'Melynda Anstead'
p611
(dp612
g3
S'450-470-3593'
p613
sg5
S'3, Lee, Dr, #8435'
p614
ssS'Brinda Mrkvicka'
p615
(dp616
g3
S'506-392-8334'
p617
sg5
S'1, Park, Ave'
p618
ssS'Glendora Pezley'
p619
(dp620
g3
S'780-508-2609'
p621
sg5
S'2, 80e, E, #7867'
p622
ssS'Allene Perera'
p623
(dp624
g3
S'416-681-6822'
p625
sg5
S'7167, Bethlehem, Pike, #80'
p626
ssS'Aron Leuthold'
p627
(dp628
g3
S'604-637-3549'
p629
sg5
S'9, Park, St'
p630
ssS'Dorothy Aitken'
p631
(dp632
g3
S'905-554-3838'
p633
sg5
S'4, Hanover, Pike'
p634
ssS'Danilo Pride'
p635
(dp636
g3
S'403-212-4945'
p637
sg5
S'6857, Wall, St'
p638
ssS'Slyvia Stockham'
p639
(dp640
g3
S'418-913-7998'
p641
sg5
S'4895, Country, Club, Rd'
p642
ssS'Jimmie Snelling'
p643
(dp644
g3
S'905-772-1416'
p645
sg5
S'24, Sw, Bridgeport, Rd'
p646
ssS'Tammy Sams'
p647
(dp648
g3
S'250-226-1002'
p649
sg5
S'5, Secaucus, Rd'
p650
ssS'Aimee Clozza'
p651
(dp652
g3
S'613-804-8102'
p653
sg5
S'7, N, Wacker, Dr, #42'
p654
ssS'Dorcas Diebold'
p655
(dp656
g3
S'905-860-8703'
p657
sg5
S'8899, E, Slauson, Ave'
p658
ssS'Shasta Canonico'
p659
(dp660
g3
S'705-531-2796'
p661
sg5
S'71, West, Ave'
p662
ssS'Karina Cortesi'
p663
(dp664
g3
S'450-252-9611'
p665
sg5
S'901, Broughton, Ave, #7'
p666
ssS'Latonia Helander'
p667
(dp668
g3
S'905-723-5674'
p669
sg5
S'6325, Statesville, Rd'
p670
ssS'Emmett Mcshaw'
p671
(dp672
g3
S'705-581-1220'
p673
sg5
S'920, Union, Blvd'
p674
ssS'Viola Eddens'
p675
(dp676
g3
S'506-772-3108'
p677
sg5
S'51, S, Hulen, St'
p678
ssS'Jose Kylish'
p679
(dp680
g3
S'514-211-3774'
p681
sg5
S'93, Law, Dr'
p682
ssS'Marnie Purslow'
p683
(dp684
g3
S'204-904-1386'
p685
sg5
S'3068, N, Interstate, 35'
p686
ssS'Bev Dermo'
p687
(dp688
g3
S'604-880-6351'
p689
sg5
S'6059, Alewa, Dr'
p690
ssS'Yvette Capiga'
p691
(dp692
g3
S'403-919-6456'
p693
sg5
S'33, Broadway, St, #8539'
p694
ssS'Leoma Rabago'
p695
(dp696
g3
S'250-810-7815'
p697
sg5
S'575, Washington, St'
p698
ssS'Toshia Lippoldt'
p699
(dp700
g3
S'418-759-7863'
p701
sg5
S'7, Duluth, St'
p702
ssS'Chu Collopy'
p703
(dp704
g3
S'819-677-1206'
p705
sg5
S'8, E, 9mile, Rd, #697'
p706
ssS'Yasuko Greeves'
p707
(dp708
g3
S'250-891-6910'
p709
sg5
S'4634, Anania, Dr'
p710
ssS'Verona Jobst'
p711
(dp712
g3
S'514-842-7487'
p713
sg5
S'9041, Grand, Plaza, Plac'
p714
ssS'Annamae Beliles'
p715
(dp716
g3
S'604-877-2244'
p717
sg5
S'8939, Merrill, Field, Dr'
p718
ssS'Romana Riesgraf'
p719
(dp720
g3
S'506-310-3728'
p721
sg5
S'986, Whitaker, Way'
p722
ssS'Eric Gazzola'
p723
(dp724
g3
S'418-274-7373'
p725
sg5
S'732, Congress, St'
p726
ssS'Nguyet Kitchens'
p727
(dp728
g3
S'403-883-4097'
p729
sg5
S'68, Nw, Raleigh, St, #88'
p730
ssS'Candra Peets'
p731
(dp732
g3
S'705-799-1235'
p733
sg5
S'9, Pulaski, Park, Dr, #7'
p734
ssS'Shelba Kast'
p735
(dp736
g3
S'902-654-7334'
p737
sg5
S'56, Washington, Rd'
p738
ssS'Matthew Armacost'
p739
(dp740
g3
S'705-417-7221'
p741
sg5
S'220, Old, Us, Highway, 441'
p742
ssS'Willie Coughlan'
p743
(dp744
g3
S'819-869-6389'
p745
sg5
S'8545, S, Westshore, Blvd'
p746
ssS'Louvenia Abney'
p747
(dp748
g3
S'306-256-9309'
p749
sg5
S'6, Friendship, Dr, #5055'
p750
ssS'Gianna Branin'
p751
(dp752
g3
S'403-337-7162'
p753
sg5
S'100, Main, St'
p754
ssS'Matt Nickolich'
p755
(dp756
g3
S'306-891-2346'
p757
sg5
S'103, E, Main, St, #59'
p758
ssS'Shanice Pennel'
p759
(dp760
g3
S'613-850-3405'
p761
sg5
S'31, N, Canal, St'
p762
ssS'Mindy Presnal'
p763
(dp764
g3
S'604-213-8721'
p765
sg5
S'82, Us, Highway, 111'
p766
ssS'Shakira Westervelt'
p767
(dp768
g3
S'604-991-8721'
p769
sg5
S'5470, N, Lamar, Blvd, #542'
p770
ssS'Lyla Fucillo'
p771
(dp772
g3
S'902-844-1174'
p773
sg5
S'7979, 33, , 191'
p774
ssS'Macy Massay'
p775
(dp776
g3
S'204-656-8450'
p777
sg5
S'6, N, Water, St'
p778
ssS'Madonna Landman'
p779
(dp780
g3
S'250-307-7698'
p781
sg5
S'283, Andover, St'
p782
ssS'Jules Erichsen'
p783
(dp784
g3
S'905-929-8054'
p785
sg5
S'1, Parkfair, Dr, #1219'
p786
ssS'Agustin Lakatos'
p787
(dp788
g3
S'819-365-5394'
p789
sg5
S'23, E, Wacker, Dr, #64'
p790
ssS'Leanna Tijerina'
p791
(dp792
g3
S'416-719-2114'
p793
sg5
S'2859, Dorsett, Rd'
p794
ssS'Frank Amend'
p795
(dp796
g3
S'519-823-9369'
p797
sg5
S'2583, Lincoln, Blvd'
p798
ssS'Karrie Kinikini'
p799
(dp800
g3
S'250-384-7658'
p801
sg5
S'491, Main, St, #893'
p802
ssS'Providencia Marien'
p803
(dp804
g3
S'613-256-5226'
p805
sg5
S'83, Magnavox, Way'
p806
ssS'Brunilda Coin'
p807
(dp808
g3
S'506-327-7460'
p809
sg5
S'300, Congers, Rd, #77'
p810
ssS'Noemi Ill'
p811
(dp812
g3
S'705-414-4712'
p813
sg5
S'18, Nw, 6th, St'
p814
ssS'Justa Dini'
p815
(dp816
g3
S'250-982-9377'
p817
sg5
S'8, J, St'
p818
ssS'Leonor Beilinson'
p819
(dp820
g3
S'613-338-5158'
p821
sg5
S'269, Distribution, Way'
p822
ssS'Leslee Matsuno'
p823
(dp824
g3
S'418-460-5773'
p825
sg5
S'1251, E, Main, St, #990'
p826
ssS'Meghann Mamudoski'
p827
(dp828
g3
S'902-348-8759'
p829
sg5
S'7675, N, Solano, Dr'
p830
ssS'Barney Hagen'
p831
(dp832
g3
S'450-526-5424'
p833
sg5
S'6335, Fort, Myer, Dr'
p834
ssS'Carlene Kana'
p835
(dp836
g3
S'519-930-5055'
p837
sg5
S'541, N, 88th, Ave'
p838
ssS'Myra Palenik'
p839
(dp840
g3
S'418-930-7475'
p841
sg5
S'5661, Harding, St'
p842
ssS'Gaynell Benavente'
p843
(dp844
g3
S'807-284-2501'
p845
sg5
S'71, W, Indian, School, Rd'
p846
ssS'Starr Prothro'
p847
(dp848
g3
S'418-811-3750'
p849
sg5
S'133, Us, Highway, 206'
p850
ssS'Alison Mahlum'
p851
(dp852
g3
S'613-862-3122'
p853
sg5
S'841, N, Monroe, St'
p854
ssS'Rene Granier'
p855
(dp856
g3
S'403-438-9257'
p857
sg5
S'4241, Tapp, St'
p858
ssS'Vanda Tentler'
p859
(dp860
g3
S'250-605-3501'
p861
sg5
S'7, Shetland, Ct'
p862
ssS'Ashton Nitchals'
p863
(dp864
g3
S'905-725-6769'
p865
sg5
S'13, Midway, Pl'
p866
ssS'Chauncey Mcelreath'
p867
(dp868
g3
S'613-908-7090'
p869
sg5
S'615, Main, St, #3722'
p870
ssS'Silva Riviere'
p871
(dp872
g3
S'514-319-4125'
p873
sg5
S'10, Canal, St'
p874
ssS'Thersa Davirro'
p875
(dp876
g3
S'250-540-5275'
p877
sg5
S'863, E, Mcdowell, Rd'
p878
ssS'Lawanda Jacocks'
p879
(dp880
g3
S'250-226-8113'
p881
sg5
S'92, A, Glenneyre, Ave'
p882
ssS'Gregg Epperheimer'
p883
(dp884
g3
S'514-302-4158'
p885
sg5
S'59, W, Jackson, Blvd, #11'
p886
ssS'Ailene Friedman'
p887
(dp888
g3
S'506-907-7068'
p889
sg5
S'479, Commerce, Park'
p890
ssS'Caren Doscher'
p891
(dp892
g3
S'403-344-3614'
p893
sg5
S'1770, Mission, Ave'
p894
ssS'Ranee Maye'
p895
(dp896
g3
S'450-700-5970'
p897
sg5
S'5361, N, 500, W, #3065'
p898
ssS'Elfrieda Hinsch'
p899
(dp900
g3
S'250-454-9384'
p901
sg5
S'4929, Sidney, St, #8276'
p902
ssS'Emile Dorio'
p903
(dp904
g3
S'450-529-3773'
p905
sg5
S'264, Jefferson, Hwy, #83'
p906
ssS'Denny Zeanah'
p907
(dp908
g3
S'514-224-2722'
p909
sg5
S'339, W, 1st, St'
p910
ssS'Margot Storrs'
p911
(dp912
g3
S'905-309-5010'
p913
sg5
S'237, S, French, Ave'
p914
ssS'Louis Zarling'
p915
(dp916
g3
S'418-568-3216'
p917
sg5
S'6, E, Kingsbridge, Rd'
p918
ssS'Phuong Sugai'
p919
(dp920
g3
S'450-501-4406'
p921
sg5
S'8926, E, 119th, St, #9'
p922
ssS'Carry Ziller'
p923
(dp924
g3
S'519-847-8783'
p925
sg5
S'8, Maynesboro, St'
p926
ssS'An Dosal'
p927
(dp928
g3
S'819-324-8832'
p929
sg5
S'8, Leoole, St, #3'
p930
ssS'Georgiann Hoerter'
p931
(dp932
g3
S'819-632-2869'
p933
sg5
S'4945, Progress, Dr'
p934
ssS'Herschel Geneseo'
p935
(dp936
g3
S'416-786-7887'
p937
sg5
S'7753, W, 8th'
p938
ssS'Truman Mondale'
p939
(dp940
g3
S'705-757-7389'
p941
sg5
S'1657, N, Green, St'
p942
ssS'Colby Scotts'
p943
(dp944
g3
S'705-668-5094'
p945
sg5
S'7, E, 1st, St'
p946
ssS'Jeannine Rippy'
p947
(dp948
g3
S'902-811-1450'
p949
sg5
S'7767, W, Central, Ave, #2'
p950
ssS'Lon Tibbles'
p951
(dp952
g3
S'905-233-1845'
p953
sg5
S'78, Eastway, Dr'
p954
ssS'Carol Normington'
p955
(dp956
g3
S'418-540-2207'
p957
sg5
S'1, S, Kresson, St'
p958
ssS'Vonda Normandeau'
p959
(dp960
g3
S'450-706-3809'
p961
sg5
S'9891, Main, St'
p962
ssS'Sherell Despain'
p963
(dp964
g3
S'604-344-4458'
p965
sg5
S'66, 62nd, St, #30'
p966
ssS'Murray Fode'
p967
(dp968
g3
S'514-921-5562'
p969
sg5
S'59, W, Century, Rd'
p970
ssS'Lasandra Frisinger'
p971
(dp972
g3
S'604-210-7413'
p973
sg5
S'1, Highway, 71, S'
p974
ssS'Oliva Ramerez'
p975
(dp976
g3
S'403-690-1059'
p977
sg5
S'8688, Manning, Blvd, #547'
p978
ssS'Shawnee Kesten'
p979
(dp980
g3
S'902-208-1038'
p981
sg5
S'5, W, Irving, Park, Rd'
p982
ssS'Irene Benauides'
p983
(dp984
g3
S'506-251-3150'
p985
sg5
S'45, 19th, St'
p986
ssS'Annice Peckens'
p987
(dp988
g3
S'250-727-7309'
p989
sg5
S'5, Falls, Rd'
p990
ssS'Long Shintaku'
p991
(dp992
g3
S'450-771-5010'
p993
sg5
S'8, W, 41st, Ave'
p994
ssS'Stefanie Prinkey'
p995
(dp996
g3
S'604-833-9067'
p997
sg5
S'985, Joyce, St'
p998
ssS'Tenesha Stropko'
p999
(dp1000
g3
S'506-629-6209'
p1001
sg5
S'648, Waihona, St, #1152'
p1002
ssS'William Boccard'
p1003
(dp1004
g3
S'514-606-4631'
p1005
sg5
S'9, Clove, Rd'
p1006
ssS'Elfriede Bakeley'
p1007
(dp1008
g3
S'506-404-8558'
p1009
sg5
S'538, Fayetteville, Street, Mall'
p1010
ssS'Joye Nedman'
p1011
(dp1012
g3
S'306-991-3698'
p1013
sg5
S'9, Court, St'
p1014
ssS'Nickie Balonek'
p1015
(dp1016
g3
S'604-556-1080'
p1017
sg5
S'7, Saint, Nicholas, Ave'
p1018
ssS'Oliva Ambert'
p1019
(dp1020
g3
S'506-672-7328'
p1021
sg5
S'1, Broadway, St'
p1022
ssS'Yan Bubrig'
p1023
(dp1024
g3
S'506-493-4894'
p1025
sg5
S'712, N, 5th, St'
p1026
ssS'Kenneth Drizin'
p1027
(dp1028
g3
S'819-999-6396'
p1029
sg5
S'2, Scott, Blvd'
p1030
ssS'Sina Masiejczyk'
p1031
(dp1032
g3
S'416-369-7013'
p1033
sg5
S'3067, W, Wabansia, Ave'
p1034
ssS'Yong Yestramski'
p1035
(dp1036
g3
S'519-344-3979'
p1037
sg5
S'365, Zebra, Pl'
p1038
ssS'Thea Petermeier'
p1039
(dp1040
g3
S'418-360-6739'
p1041
sg5
S'402, Santa, Isabel, Ave'
p1042
ssS'Arlen Romack'
p1043
(dp1044
g3
S'506-218-3036'
p1045
sg5
S'1, W, Green, Bay, St'
p1046
ssS'Queenie Kramarczyk'
p1047
(dp1048
g3
S'306-421-5793'
p1049
sg5
S'47, Garfield, Ave'
p1050
ssS'Phyliss Huelse'
p1051
(dp1052
g3
S'403-540-2604'
p1053
sg5
S'672, Neil, Armstrong, St, #59'
p1054
ssS'Ricki Traux'
p1055
(dp1056
g3
S'514-657-1920'
p1057
sg5
S'995, Concord, Rd'
p1058
ssS'Jacinta Deppen'
p1059
(dp1060
g3
S'250-203-5054'
p1061
sg5
S'1458, W, Henry, St'
p1062
ssS'Tennie Santanna'
p1063
(dp1064
g3
S'819-261-5496'
p1065
sg5
S'196, Waterman, Ave, #1'
p1066
ssS'Suzi Groom'
p1067
(dp1068
g3
S'604-700-2946'
p1069
sg5
S'9, W, Jackson, Blvd'
p1070
ssS'Loise Dedaj'
p1071
(dp1072
g3
S'306-964-9291'
p1073
sg5
S'1062, Rd'
p1074
ssS'Alana Blackmon'
p1075
(dp1076
g3
S'416-386-8947'
p1077
sg5
S'96, Hook, Rd'
p1078
ssS'Kenneth Degennaro'
p1079
(dp1080
g3
S'506-763-6456'
p1081
sg5
S'965, Bryant, St'
p1082
ssS'Gussie Diflorio'
p1083
(dp1084
g3
S'613-857-7922'
p1085
sg5
S'881, South, St, #4'
p1086
ssS'Dorothea Lowther'
p1087
(dp1088
g3
S'705-793-4986'
p1089
sg5
S'2763, Fort, Campbell, Blvd, #7554'
p1090
ssS'Nobuko Logwood'
p1091
(dp1092
g3
S'519-739-4745'
p1093
sg5
S'612, York, St'
p1094
ssS'Paulene Rhule'
p1095
(dp1096
g3
S'418-348-2107'
p1097
sg5
S'21, E, 64th, Ave'
p1098
ssS'Darell Mcalarney'
p1099
(dp1100
g3
S'905-846-7737'
p1101
sg5
S'8, E, 92nd, St'
p1102
ssS'Veta Vandeberg'
p1103
(dp1104
g3
S'506-996-1241'
p1105
sg5
S'940, E, Jefferson, Ave'
p1106
ssS'Ollie Oliverson'
p1107
(dp1108
g3
S'416-762-4001'
p1109
sg5
S'1, W, 8th'
p1110
ssS'Nathalie Corners'
p1111
(dp1112
g3
S'705-736-4801'
p1113
sg5
S'14, Van, Buren, St'
p1114
ssS'Sharmaine Batdorf'
p1115
(dp1116
g3
S'506-839-1630'
p1117
sg5
S'1822, Guilford, Rd'
p1118
ssS'Rosalyn Mcspedon'
p1119
(dp1120
g3
S'613-362-7798'
p1121
sg5
S'449, Oakwood, Ave'
p1122
ssS'Yolande Staiano'
p1123
(dp1124
g3
S'613-700-7712'
p1125
sg5
S'21, N, 14th, St'
p1126
ssS'Lelia Thiemann'
p1127
(dp1128
g3
S'250-671-3851'
p1129
sg5
S'440, Town, Center, Dr'
p1130
ssS'Mammie Cisney'
p1131
(dp1132
g3
S'514-205-4258'
p1133
sg5
S'14, E, 30th, St'
p1134
ssS'Tamera Crocker'
p1135
(dp1136
g3
S'780-833-7024'
p1137
sg5
S'652, Pacific, Hwy'
p1138
ssS'Kindra Dishong'
p1139
(dp1140
g3
S'613-510-3295'
p1141
sg5
S'4, Sutton, Ln'
p1142
ssS'Valene Madson'
p1143
(dp1144
g3
S'418-646-3844'
p1145
sg5
S'42, Main, St'
p1146
ssS'Doyle Hathcox'
p1147
(dp1148
g3
S'250-227-4140'
p1149
sg5
S'48, Market, St'
p1150
ssS'Lynsey Sport'
p1151
(dp1152
g3
S'604-525-6939'
p1153
sg5
S'7, Mccrea, St'
p1154
ssS'Blossom Kraatz'
p1155
(dp1156
g3
S'416-631-1863'
p1157
sg5
S'881, Route, 38'
p1158
ssS'Cordelia Nicks'
p1159
(dp1160
g3
S'905-975-4308'
p1161
sg5
S'572, Simpson, St'
p1162
ssS'Anjelica Lovero'
p1163
(dp1164
g3
S'902-386-1443'
p1165
sg5
S'689, S, Steele, St, #1887'
p1166
ssS'Tayna Keirnan'
p1167
(dp1168
g3
S'705-655-5936'
p1169
sg5
S'18, Cowesett, Ave'
p1170
ssS'Brendan Kasperek'
p1171
(dp1172
g3
S'604-947-9315'
p1173
sg5
S'84, L, St, #98'
p1174
ssS'Eura Mcglocklin'
p1175
(dp1176
g3
S'306-979-2571'
p1177
sg5
S'9, N, Monroe, St'
p1178
ssS'Mila Hair'
p1179
(dp1180
g3
S'514-945-2978'
p1181
sg5
S'515, S, Main, St'
p1182
ssS'Shoshana Courter'
p1183
(dp1184
g3
S'519-396-2906'
p1185
sg5
S'8763, N, Front, St'
p1186
ssS'Janae Mair'
p1187
(dp1188
g3
S'905-501-5086'
p1189
sg5
S'8, S, Mcmullen, Dr, #38'
p1190
ssS'Afton Wrinkle'
p1191
(dp1192
g3
S'613-851-7883'
p1193
sg5
S'652, 5th, Ave'
p1194
ssS'Adria Gilliam'
p1195
(dp1196
g3
S'905-563-9396'
p1197
sg5
S'60, 15th, Ave'
p1198
ssS'Avery Masso'
p1199
(dp1200
g3
S'902-588-8947'
p1201
sg5
S'6, Central, Ave, #664'
p1202
ssS'Vanna Pickle'
p1203
(dp1204
g3
S'905-309-4565'
p1205
sg5
S'3, B, Main, #117'
p1206
ssS'Hildegarde Wehrwein'
p1207
(dp1208
g3
S'604-960-7463'
p1209
sg5
S'2, Cottman, Ave'
p1210
ssS'Jaime Perugini'
p1211
(dp1212
g3
S'514-950-4495'
p1213
sg5
S'7071, E, 7th, St, #56'
p1214
ssS'Jesse Wida'
p1215
(dp1216
g3
S'905-356-4735'
p1217
sg5
S'1, E, Gabilan, St'
p1218
ssS'Willis Wylie'
p1219
(dp1220
g3
S'418-833-1949'
p1221
sg5
S'646, 9th, St'
p1222
ssS'Kimbery Plikerd'
p1223
(dp1224
g3
S'250-504-9388'
p1225
sg5
S'62, 15th, Ave, #63'
p1226
ssS'Celestine Pritt'
p1227
(dp1228
g3
S'613-875-3120'
p1229
sg5
S'79, E, 92nd, St'
p1230
ssS'India Sifford'
p1231
(dp1232
g3
S'416-866-6707'
p1233
sg5
S'162, Sunrise, Plz'
p1234
ssS'Clemencia Momplaisir'
p1235
(dp1236
g3
S'514-804-3533'
p1237
sg5
S'698, N, Allen, Rd'
p1238
ssS'Florinda Mackedanz'
p1239
(dp1240
g3
S'506-230-8075'
p1241
sg5
S'2782, Midland, Ave'
p1242
ssS'Johnathon Wadden'
p1243
(dp1244
g3
S'705-646-2781'
p1245
sg5
S'4714, S, Main, St'
p1246
ssS'Erin Delbosque'
p1247
(dp1248
g3
S'450-316-7813'
p1249
sg5
S'357, W, Mount, Royal, Ave'
p1250
ssS'Leontine Lafoy'
p1251
(dp1252
g3
S'418-271-8667'
p1253
sg5
S'191, Richland, St, #5'
p1254
ssS'Dell Polino'
p1255
(dp1256
g3
S'819-255-1725'
p1257
sg5
S'56, Corporate, Dr'
p1258
ssS'Darrel Makley'
p1259
(dp1260
g3
S'506-839-5378'
p1261
sg5
S'6, N, Volusia, Ave, #2'
p1262
ssS'Amber Windell'
p1263
(dp1264
g3
S'604-864-2113'
p1265
sg5
S'41, Augusta, Hwy'
p1266
ssS'Essie Fitzke'
p1267
(dp1268
g3
S'506-785-2719'
p1269
sg5
S'9, 3rd, St'
p1270
ssS'Glennis Roseum'
p1271
(dp1272
g3
S'204-514-9319'
p1273
sg5
S'1, Pershing, Ave'
p1274
ssS'Phil Kuechler'
p1275
(dp1276
g3
S'418-940-4070'
p1277
sg5
S'7, Mcwhorter, Rd'
p1278
ssS'Dominga Mckeon'
p1279
(dp1280
g3
S'819-627-1581'
p1281
sg5
S'68, Dd, N, #1'
p1282
ssS'Arlette Torchio'
p1283
(dp1284
g3
S'514-459-6883'
p1285
sg5
S'485, Rolling, Rd'
p1286
ssS'Francesco Sarchet'
p1287
(dp1288
g3
S'306-524-4509'
p1289
sg5
S'22, Dearborn, St'
p1290
ssS'Trinidad Bredernitz'
p1291
(dp1292
g3
S'514-561-2312'
p1293
sg5
S'75, N, Washington, Ave'
p1294
ssS'Makeda Nosis'
p1295
(dp1296
g3
S'416-827-4082'
p1297
sg5
S'956, Sierra, Ave'
p1298
ssS'Kimi Selfe'
p1299
(dp1300
g3
S'418-795-3880'
p1301
sg5
S'2, W, Kellogg, Dr, #5'
p1302
ssS'Yaeko Orndoff'
p1303
(dp1304
g3
S'519-625-4433'
p1305
sg5
S'66, Hoffman, St'
p1306
ssS'Lea Steinhaus'
p1307
(dp1308
g3
S'905-618-8258'
p1309
sg5
S'80, Maplewood, Dr, #34'
p1310
ssS'Joanne Teoh'
p1311
(dp1312
g3
S'905-219-6895'
p1313
sg5
S'1, W, Sierra, Madre, Blvd, #9985'
p1314
ssS'Kris Bala'
p1315
(dp1316
g3
S'905-848-5458'
p1317
sg5
S'43, Gateway, Blvd'
p1318
ssS'Janna Bastain'
p1319
(dp1320
g3
S'604-575-7837'
p1321
sg5
S'41, Drive, , Hwy, 54s, S'
p1322
ssS'Johna Magathan'
p1323
(dp1324
g3
S'780-994-6272'
p1325
sg5
S'1724, W, Dodge, Rd'
p1326
ssS'Asuncion Berson'
p1327
(dp1328
g3
S'204-318-1929'
p1329
sg5
S'54, Whitaker, Way'
p1330
ssS'Kelvin Hasha'
p1331
(dp1332
g3
S'780-227-7373'
p1333
sg5
S'18, Duluth, St'
p1334
ssS'Huey Marcille'
p1335
(dp1336
g3
S'780-639-3619'
p1337
sg5
S'169, Journal, Sq'
p1338
ssS'Josue Hatherly'
p1339
(dp1340
g3
S'416-337-2239'
p1341
sg5
S'755, 135th, St'
p1342
ssS'Xenia Mushero'
p1343
(dp1344
g3
S'613-714-1829'
p1345
sg5
S'1, El, Camino, Ave, #39'
p1346
ssS'Rodney Lockamy'
p1347
(dp1348
g3
S'613-273-5773'
p1349
sg5
S'7, N, Us, Highway, 67, #96'
p1350
ssS'Cordell Zinda'
p1351
(dp1352
g3
S'819-508-6057'
p1353
sg5
S'91, Argyle, Rd'
p1354
ssS'Jacquline Libbey'
p1355
(dp1356
g3
S'418-682-7368'
p1357
sg5
S'647, S, Rainbow, Blvd, Bldg, #4577'
p1358
ssS'Ruby Sensibaugh'
p1359
(dp1360
g3
S'604-553-2468'
p1361
sg5
S'637, Wright, Rd'
p1362
ssS'Florencia Stadel'
p1363
(dp1364
g3
S'519-961-7871'
p1365
sg5
S'178, Riverdale, Rd'
p1366
ssS'Tayna Sine'
p1367
(dp1368
g3
S'905-334-8817'
p1369
sg5
S'99, Garfield, Ave, #370'
p1370
ssS'Percy Neelon'
p1371
(dp1372
g3
S'418-537-1430'
p1373
sg5
S'901, Highway, 74'
p1374
ssS'Gilma Jefferys'
p1375
(dp1376
g3
S'902-804-8543'
p1377
sg5
S'147, E, Centre, St'
p1378
ssS'Azzie Tuazon'
p1379
(dp1380
g3
S'905-208-4039'
p1381
sg5
S'5518, Whippany, Rd'
p1382
ssS'Lajuana Mccloud'
p1383
(dp1384
g3
S'450-272-6370'
p1385
sg5
S'7, W, Pine, St'
p1386
ssS'Bettina Vosmus'
p1387
(dp1388
g3
S'604-752-9256'
p1389
sg5
S'7, Ryan, Industrial, Ct'
p1390
ssS'Genevieve Milionis'
p1391
(dp1392
g3
S'705-467-4142'
p1393
sg5
S'5, Cedar, St'
p1394
ssS'Salina Knavel'
p1395
(dp1396
g3
S'613-280-7170'
p1397
sg5
S'4, Newark, St'
p1398
ssS'Denae Eggers'
p1399
(dp1400
g3
S'204-341-2445'
p1401
sg5
S'475, S, Figueroa, St'
p1402
ssS'Corrie Kardell'
p1403
(dp1404
g3
S'514-203-7817'
p1405
sg5
S'75, Westchester, Ave'
p1406
ssS'Elena Hairr'
p1407
(dp1408
g3
S'709-399-4807'
p1409
sg5
S'31, Mechanic, St, #9839'
p1410
ssS'Armanda Mcduffie'
p1411
(dp1412
g3
S'450-866-7181'
p1413
sg5
S'989, Wyatt, Dr, #7'
p1414
ssS'Rosalind Persechino'
p1415
(dp1416
g3
S'613-975-5760'
p1417
sg5
S'86, Shady, Run, Rd'
p1418
ssS'Giovanna Bacho'
p1419
(dp1420
g3
S'604-203-8085'
p1421
sg5
S'71, S, Newtown, St'
p1422
ssS'Demetra Peth'
p1423
(dp1424
g3
S'819-858-7901'
p1425
sg5
S'79, E, Jackson, St'
p1426
ssS'Marla Gallati'
p1427
(dp1428
g3
S'514-872-9323'
p1429
sg5
S'922, Railroad, Ave, #7063'
p1430
ssS'Antonette Stimac'
p1431
(dp1432
g3
S'519-670-5269'
p1433
sg5
S'61, N, Westshore, Blvd'
p1434
ssS'Gretchen Mckeon'
p1435
(dp1436
g3
S'250-617-7197'
p1437
sg5
S'809, W, Bayshore, Rd'
p1438
ssS'Stephanie Rolling'
p1439
(dp1440
g3
S'306-510-5011'
p1441
sg5
S'45, S, Cedar, Ridge, Dr'
p1442
ssS'Melvin Rather'
p1443
(dp1444
g3
S'819-418-3496'
p1445
sg5
S'8794, 34th, Ave'
p1446
ssS'Pamela Mccoskey'
p1447
(dp1448
g3
S'450-282-1236'
p1449
sg5
S'6, West, St, #2'
p1450
ssS'Chun Richrdson'
p1451
(dp1452
g3
S'306-245-2534'
p1453
sg5
S'3, Aiea, Heights, #660'
p1454
ssS'Vivan Oppy'
p1455
(dp1456
g3
S'306-325-3090'
p1457
sg5
S'4696, Alewa, Dr'
p1458
ssS'Trevor Harnist'
p1459
(dp1460
g3
S'902-782-2576'
p1461
sg5
S'99, Hart, St'
p1462
ssS'Beata Rubarts'
p1463
(dp1464
g3
S'250-808-6765'
p1465
sg5
S'19, Torresdale, Ave, #58'
p1466
ssS'Judy Boerboom'
p1467
(dp1468
g3
S'709-560-7848'
p1469
sg5
S'384, N, Main, St'
p1470
ssS'Billi Kazar'
p1471
(dp1472
g3
S'604-458-2387'
p1473
sg5
S'71, Linden, Ave'
p1474
ssS'Margurite Brake'
p1475
(dp1476
g3
S'519-476-5983'
p1477
sg5
S'258, S, Ash, Ave'
p1478
ssS'Ocie Chreene'
p1479
(dp1480
g3
S'613-756-9548'
p1481
sg5
S'72, W, Hampden, Ave'
p1482
ssS'Marshall Fitgerald'
p1483
(dp1484
g3
S'403-918-5509'
p1485
sg5
S'526, Main, St'
p1486
ssS'Aleisha Areizaga'
p1487
(dp1488
g3
S'418-408-1640'
p1489
sg5
S'960, Deming, Way'
p1490
ssS'Blythe Czaplinski'
p1491
(dp1492
g3
S'403-775-4053'
p1493
sg5
S'4, S, 4th, St'
p1494
ssS'Avery Demus'
p1495
(dp1496
g3
S'604-548-4412'
p1497
sg5
S'1, Highland, Ave'
p1498
ssS'Amie Okuniewski'
p1499
(dp1500
g3
S'613-686-9039'
p1501
sg5
S'24, Venice, Rd'
p1502
ssS'Lauryn Randol'
p1503
(dp1504
g3
S'604-236-4625'
p1505
sg5
S'4207, Leon, Rd'
p1506
ssS'Elina Maury'
p1507
(dp1508
g3
S'416-582-4379'
p1509
sg5
S'2097, N, Stonestreet, Ave'
p1510
ssS'Azalee Aja'
p1511
(dp1512
g3
S'450-515-9694'
p1513
sg5
S'2607, Market, St'
p1514
ssS'Hollis Stanfield'
p1515
(dp1516
g3
S'780-574-5620'
p1517
sg5
S'5174, Interstate, 45, N'
p1518
ssS'Timothy Bussert'
p1519
(dp1520
g3
S'416-521-5624'
p1521
sg5
S'43, Winnetka, Ave'
p1522
ssS'Sherly Vitrano'
p1523
(dp1524
g3
S'902-480-3185'
p1525
sg5
S'8, Cochise, Trl'
p1526
ssS'Shaniqua Corna'
p1527
(dp1528
g3
S'416-573-9093'
p1529
sg5
S'8, Sylvan, Ave'
p1530
ssS'Adela Echegoyen'
p1531
(dp1532
g3
S'604-571-8392'
p1533
sg5
S'128, W, Kellogg, Dr'
p1534
ssS'Chandra Lagos'
p1535
(dp1536
g3
S'416-716-6446'
p1537
sg5
S'7, N, Dean, St'
p1538
ssS'Cherelle Welschmeyer'
p1539
(dp1540
g3
S'519-322-9933'
p1541
sg5
S'2, Ramona, Ave, #6'
p1542
ssS'Annice Tartar'
p1543
(dp1544
g3
S'819-342-1651'
p1545
sg5
S'430, State, Route, 10, #7548'
p1546
ssS'Maynard Zufall'
p1547
(dp1548
g3
S'604-875-7745'
p1549
sg5
S'5094, Poway, Rd'
p1550
ssS'Jillian Hailstone'
p1551
(dp1552
g3
S'905-864-2257'
p1553
sg5
S'8721, Everett, Rd'
p1554
ssS'Felton Yafuso'
p1555
(dp1556
g3
S'613-749-1169'
p1557
sg5
S'202, Madison, Ave'
p1558
ssS'Hassie Sarkin'
p1559
(dp1560
g3
S'902-210-1513'
p1561
sg5
S'958, Airline, Dr'
p1562
ssS'Annamaria Vanhuss'
p1563
(dp1564
g3
S'905-495-3301'
p1565
sg5
S'8348, 1st, Ave, W'
p1566
ssS'Lorean Sammon'
p1567
(dp1568
g3
S'306-854-5060'
p1569
sg5
S'58, Executive, Dr'
p1570
ssS'Maddie Foulds'
p1571
(dp1572
g3
S'514-874-9519'
p1573
sg5
S'56, N, Wood, Ave, #25'
p1574
ssS'Vallie Nigl'
p1575
(dp1576
g3
S'604-848-3170'
p1577
sg5
S'7823, N, 36th, Ave'
p1578
ssS'Marva Kountz'
p1579
(dp1580
g3
S'416-494-3939'
p1581
sg5
S'1, N, Main, St, #16'
p1582
ssS'Corazon Ivaska'
p1583
(dp1584
g3
S'306-333-8933'
p1585
sg5
S'6, W, Lincoln, Ave'
p1586
ssS'Lavelle Lillywhite'
p1587
(dp1588
g3
S'418-442-4179'
p1589
sg5
S'5, S, Taylor, Ave'
p1590
ssS'Keith Evartt'
p1591
(dp1592
g3
S'506-229-5393'
p1593
sg5
S'973, El, Camino, Real'
p1594
ssS'Leonardo Leahman'
p1595
(dp1596
g3
S'403-328-5056'
p1597
sg5
S'80, Wisconsin, Ave'
p1598
ssS'Mabel Elmquist'
p1599
(dp1600
g3
S'204-285-3978'
p1601
sg5
S'8570, E, 8th, St'
p1602
ssS'Rosendo Lanter'
p1603
(dp1604
g3
S'306-700-6743'
p1605
sg5
S'2052, E, Semoran, Blvd'
p1606
ssS'Shelton Spannuth'
p1607
(dp1608
g3
S'204-364-5889'
p1609
sg5
S'4, Bloomfield, Ave, #5'
p1610
ssS'Micah Gerten'
p1611
(dp1612
g3
S'709-581-5842'
p1613
sg5
S'103, Madison, Ave'
p1614
ssS'Darrin Tumolillo'
p1615
(dp1616
g3
S'306-748-5721'
p1617
sg5
S'4, Pedretti, Ave, #2'
p1618
ssS'Troy Dicus'
p1619
(dp1620
g3
S'613-938-7999'
p1621
sg5
S'58, Calle, Arroyo'
p1622
ssS'Denny Amazan'
p1623
(dp1624
g3
S'604-239-4105'
p1625
sg5
S'4974, Rockburn, Hill, Rd, #3'
p1626
ssS'Yesenia Giglio'
p1627
(dp1628
g3
S'506-858-9797'
p1629
sg5
S'1262, W, 19th, St'
p1630
ssS'Ilda Schuring'
p1631
(dp1632
g3
S'780-830-2958'
p1633
sg5
S'80, Ringwood, Ave, #7'
p1634
ssS'Tanesha Tesseneer'
p1635
(dp1636
g3
S'416-568-3388'
p1637
sg5
S'326, Witherspoon, St'
p1638
ssS'Cletus Stapels'
p1639
(dp1640
g3
S'780-674-7330'
p1641
sg5
S'9713, Wilbur, Ave, #163'
p1642
ssS'Adolph Krivanec'
p1643
(dp1644
g3
S'416-736-1436'
p1645
sg5
S'6605, Federal, St'
p1646
ssS'Tequila Pelletier'
p1647
(dp1648
g3
S'905-692-6934'
p1649
sg5
S'6173, Landmeier, Rd'
p1650
ssS'Edelmira Calzado'
p1651
(dp1652
g3
S'306-611-7185'
p1653
sg5
S'4936, Walcott, Rd'
p1654
ssS'Precious Dubray'
p1655
(dp1656
g3
S'705-607-6992'
p1657
sg5
S'846, Middletown, Blvd, #427'
p1658
ssS'Shala Ogle'
p1659
(dp1660
g3
S'418-823-9061'
p1661
sg5
S'4956, Midway, Rd, #65'
p1662
ssS'Felix Tutterrow'
p1663
(dp1664
g3
S'519-426-7161'
p1665
sg5
S'92, W, 39th, St, #9990'
p1666
ssS'Luisa Harnish'
p1667
(dp1668
g3
S'604-399-1449'
p1669
sg5
S'82, Westminster, Blvd'
p1670
ssS'Lakeesha Beachel'
p1671
(dp1672
g3
S'604-352-7502'
p1673
sg5
S'1, Sw, 72nd, Ave'
p1674
ssS'Michal Gunyan'
p1675
(dp1676
g3
S'418-399-6819'
p1677
sg5
S'9514, Mount, Vernon, Ave'
p1678
ssS'Alberto Stenquist'
p1679
(dp1680
g3
S'905-435-9456'
p1681
sg5
S'6126, E, 14th, St, #6'
p1682
ssS'Ilona Dudash'
p1683
(dp1684
g3
S'819-536-7034'
p1685
sg5
S'2, Sutton, Pl, S, #5727'
p1686
ssS'Jarod Catalina'
p1687
(dp1688
g3
S'705-369-2146'
p1689
sg5
S'60, Sunrise, Ave'
p1690
ssS'Adelle Nitcher'
p1691
(dp1692
g3
S'905-998-3758'
p1693
sg5
S'10, Midway, Dr'
p1694
ssS'Elise Michelle'
p1695
(dp1696
g3
S'905-652-4509'
p1697
sg5
S'88, E, Saint, Elmo, Rd'
p1698
ssS'Sommer Frere'
p1699
(dp1700
g3
S'450-777-9643'
p1701
sg5
S'1309, Pitney, Rd'
p1702
ssS'Curt Kohlman'
p1703
(dp1704
g3
S'306-739-3437'
p1705
sg5
S'5, Westbranch, Dr, #36'
p1706
ssS'Effie Frymark'
p1707
(dp1708
g3
S'519-433-4142'
p1709
sg5
S'51, 3rd, Ave'
p1710
ssS'Monte Tindal'
p1711
(dp1712
g3
S'450-637-6499'
p1713
sg5
S'577, Page, Ave'
p1714
ssS'Florinda Haycock'
p1715
(dp1716
g3
S'819-820-6568'
p1717
sg5
S'6096, N, Michigan, Ave'
p1718
ssS'Georgeanna Marrano'
p1719
(dp1720
g3
S'905-366-7378'
p1721
sg5
S'3493, Camino, Ruiz'
p1722
ssS'Renato Airhart'
p1723
(dp1724
g3
S'403-444-2250'
p1725
sg5
S'1, Vernon, Blvd'
p1726
ssS'Chi Morgan'
p1727
(dp1728
g3
S'418-922-5578'
p1729
sg5
S'2953, 5th, Ave, #27'
p1730
ssS'Dianne Tomasic'
p1731
(dp1732
g3
S'902-938-6891'
p1733
sg5
S'53, 6, , 17, M, At, Bradleys'
p1734
ssS'Kimberely Rabuse'
p1735
(dp1736
g3
S'519-912-5533'
p1737
sg5
S'89, W, 35th, St, #1'
p1738
ssS'Tambra Lembke'
p1739
(dp1740
g3
S'250-353-7479'
p1741
sg5
S'6734, W, Jackson, Blvd'
p1742
ssS'Rochell Wetherby'
p1743
(dp1744
g3
S'418-362-9768'
p1745
sg5
S'142, E, 57th, Ave, #2'
p1746
ssS'Sabine Kaea'
p1747
(dp1748
g3
S'905-586-1138'
p1749
sg5
S'48, Lower, Ragsdale, Dr, #1349'
p1750
ssS'Terrilyn Waska'
p1751
(dp1752
g3
S'819-670-6020'
p1753
sg5
S'6, E, Miraloma, Ave'
p1754
ssS'Amalia Wolfgang'
p1755
(dp1756
g3
S'519-219-3608'
p1757
sg5
S'394, Dice, Rd, #861'
p1758
ssS'Ria Steinhorst'
p1759
(dp1760
g3
S'418-319-1374'
p1761
sg5
S'269, Commercial, Dr'
p1762
ssS'Val Bigaud'
p1763
(dp1764
g3
S'514-726-2573'
p1765
sg5
S'42, N, 16th, St, #620'
p1766
ssS'Ryan Phibbs'
p1767
(dp1768
g3
S'306-621-2626'
p1769
sg5
S'7827, Commercial, St, Se, #37'
p1770
ssS'Malcom Vereen'
p1771
(dp1772
g3
S'519-334-1058'
p1773
sg5
S'548, Midland, Ave'
p1774
ssS'Nohemi Leko'
p1775
(dp1776
g3
S'705-838-9265'
p1777
sg5
S'37, Us, Highway, 12e, E, #6'
p1778
ssS'Zoila Lannigan'
p1779
(dp1780
g3
S'416-322-9207'
p1781
sg5
S'40, N, Dean, St'
p1782
ssS'Lenita Darbro'
p1783
(dp1784
g3
S'250-749-4517'
p1785
sg5
S'2726, Franklin, Hill, Rd'
p1786
ssS'Jin Perry'
p1787
(dp1788
g3
S'416-463-6411'
p1789
sg5
S'18, Cameron, St'
p1790
ssS'Iesha Wardle'
p1791
(dp1792
g3
S'416-989-2001'
p1793
sg5
S'781, Alabama, Ave'
p1794
ssS'Ellsworth Rieg'
p1795
(dp1796
g3
S'613-862-4724'
p1797
sg5
S'7662, Us, Highway, 46, #9003'
p1798
ssS'Dona Larner'
p1799
(dp1800
g3
S'416-884-9104'
p1801
sg5
S'4298, E, Drinker, St'
p1802
ssS'Darrin Mathiasen'
p1803
(dp1804
g3
S'450-536-7426'
p1805
sg5
S'35, Peconic, Ave, #4'
p1806
ssS'Hana Meisel'
p1807
(dp1808
g3
S'403-696-7108'
p1809
sg5
S'6, E, Rand, Rd, #73'
p1810
ssS'Esteban Plantenberg'
p1811
(dp1812
g3
S'604-519-9547'
p1813
sg5
S'78, E, River'
p1814
ssS'Nada Massanet'
p1815
(dp1816
g3
S'604-570-1494'
p1817
sg5
S'80, Sw, End, Blvd'
p1818
ssS'Lera Hua'
p1819
(dp1820
g3
S'506-556-4300'
p1821
sg5
S'6638, S, Webster, St, #491'
p1822
ssS'Nadine Swartzbeck'
p1823
(dp1824
g3
S'450-353-2331'
p1825
sg5
S'3, Federal, Blvd'
p1826
ssS'Tawny Bonventre'
p1827
(dp1828
g3
S'604-632-4346'
p1829
sg5
S'5, Middletown, Blvd'
p1830
ssS'Mabel Fower'
p1831
(dp1832
g3
S'418-339-7473'
p1833
sg5
S'709, W, Waters, Ave'
p1834
ssS'Marleen Hennon'
p1835
(dp1836
g3
S'604-545-3662'
p1837
sg5
S'2863, Brooklyn, Terminal, Mkt'
p1838
ssS'Cortney Choice'
p1839
(dp1840
g3
S'450-339-6016'
p1841
sg5
S'80, S, 33rd, Pl'
p1842
ssS'Nakisha Russi'
p1843
(dp1844
g3
S'403-513-9660'
p1845
sg5
S'8265, W, Camelback, Rd'
p1846
ssS'Claudio Hummell'
p1847
(dp1848
g3
S'403-481-8843'
p1849
sg5
S'432, Eastman, Ave'
p1850
ssS'Lashanda Skahan'
p1851
(dp1852
g3
S'506-497-2698'
p1853
sg5
S'739, Stockton, Ave'
p1854
ssS'Malissa Talty'
p1855
(dp1856
g3
S'506-724-2777'
p1857
sg5
S'3, Bush, St'
p1858
ssS'Shenika Tapian'
p1859
(dp1860
g3
S'613-219-1869'
p1861
sg5
S'4, Collier, Rd, Nw'
p1862
ssS'Basilia Vinroe'
p1863
(dp1864
g3
S'418-386-6120'
p1865
sg5
S'45, S, Wells, Ave'
p1866
ssS'Christa Cloutier'
p1867
(dp1868
g3
S'403-461-2407'
p1869
sg5
S'743, Wolfert, Ave'
p1870
ssS'Antonio Unruh'
p1871
(dp1872
g3
S'604-624-7690'
p1873
sg5
S'9, Route, 38'
p1874
ssS'Miesha Walen'
p1875
(dp1876
g3
S'705-646-4992'
p1877
sg5
S'2, Executive, Blvd'
p1878
ssS'Frank Tryninewski'
p1879
(dp1880
g3
S'306-653-1772'
p1881
sg5
S'462, 2nd, St'
p1882
ssS'Fidelia Vilven'
p1883
(dp1884
g3
S'416-892-4321'
p1885
sg5
S'9, Meridian, St'
p1886
ssS'Harris Sheck'
p1887
(dp1888
g3
S'514-257-9319'
p1889
sg5
S'9875, Sheafe, Rd'
p1890
ssS'Hortencia Bresser'
p1891
(dp1892
g3
S'902-256-6791'
p1893
sg5
S'808, Calle, De, Industrias'
p1894
ssS'Lucia Flipp'
p1895
(dp1896
g3
S'416-870-8070'
p1897
sg5
S'196, Touhy, Ave'
p1898
ssS'Rana Lehn'
p1899
(dp1900
g3
S'905-286-8285'
p1901
sg5
S'32, Rocklyn, Ave'
p1902
ssS'Maricela Conger'
p1903
(dp1904
g3
S'604-568-1899'
p1905
sg5
S'865, N, Port, Ave'
p1906
ssS'Ming Eskew'
p1907
(dp1908
g3
S'250-228-6798'
p1909
sg5
S'4153, Broughton, Ave'
p1910
ssS'Carole Hughlett'
p1911
(dp1912
g3
S'604-262-8556'
p1913
sg5
S'9, N, Central, Ave'
p1914
ssS'Noble Miyata'
p1915
(dp1916
g3
S'519-346-6651'
p1917
sg5
S'7059, E, Kilbourn, Ave, #252'
p1918
ssS'Broderick Lorenz'
p1919
(dp1920
g3
S'306-285-1574'
p1921
sg5
S'185, Davis, St'
p1922
ssS'Ira Betterton'
p1923
(dp1924
g3
S'902-240-7029'
p1925
sg5
S'935, S, Padre, Island, Dr'
p1926
ssS'Lindsey Arnoldi'
p1927
(dp1928
g3
S'250-387-4636'
p1929
sg5
S'87, Via, Contenta'
p1930
ssS'Lavina Michelet'
p1931
(dp1932
g3
S'514-842-3549'
p1933
sg5
S'2719, N, Delaware, St'
p1934
ssS'Denna Miklitz'
p1935
(dp1936
g3
S'450-409-1005'
p1937
sg5
S'1736, Us, Highway, 19n, N, #6'
p1938
ssS'Lang Heuring'
p1939
(dp1940
g3
S'519-985-7311'
p1941
sg5
S'2, Global, Rd'
p1942
ssS'Latanya Mattia'
p1943
(dp1944
g3
S'204-649-9481'
p1945
sg5
S'8229, S, Washington, Ave'
p1946
ssS'Aileen Klukken'
p1947
(dp1948
g3
S'416-390-4510'
p1949
sg5
S'8, Wilfong, Ln'
p1950
ssS'Susana Mccarley'
p1951
(dp1952
g3
S'519-491-9261'
p1953
sg5
S'7, S, Quebec'
p1954
ssS'Wayne Shivers'
p1955
(dp1956
g3
S'418-374-1965'
p1957
sg5
S'865, Ponce, De, Leon, Blvd'
p1958
ssS'Noel Marrazzo'
p1959
(dp1960
g3
S'780-447-2249'
p1961
sg5
S'91, E, Cary, St'
p1962
ssS'Catina Emmert'
p1963
(dp1964
g3
S'807-652-2563'
p1965
sg5
S'19, Distribution, Way'
p1966
ssS'Polly Sandusky'
p1967
(dp1968
g3
S'905-705-6018'
p1969
sg5
S'39, Logan, Ave, #9518'
p1970
ssS'Milly Pattengale'
p1971
(dp1972
g3
S'780-799-6418'
p1973
sg5
S'20, Fort, Campbell, Blvd, #4792'
p1974
ssS'Verlene Billow'
p1975
(dp1976
g3
S'905-486-5455'
p1977
sg5
S'8528, A, Park, Rd'
p1978
ssS'Carman Gudiel'
p1979
(dp1980
g3
S'709-366-8943'
p1981
sg5
S'1, Frontage, Rd'
p1982
ssS'Chuck Berggren'
p1983
(dp1984
g3
S'709-534-6576'
p1985
sg5
S'764, Louisville, Plac'
p1986
ssS'Titus Dugre'
p1987
(dp1988
g3
S'819-983-1846'
p1989
sg5
S'419, N, Dixboro, Rd, #8'
p1990
ssS'Devon Delacerda'
p1991
(dp1992
g3
S'250-525-4631'
p1993
sg5
S'250, University, Ave, #9'
p1994
ssS'Odette Thigpen'
p1995
(dp1996
g3
S'709-744-4165'
p1997
sg5
S'1831, Everett, Rd'
p1998
ssS'Lottie Hegdahl'
p1999
(dp2000
g3
S'905-638-1034'
p2001
sg5
S'45, W, 21st, St'
p2002
ss.